; Function Attrs: null_pointer_is_valid sspstrong uwtable
define internal void @range_add_callback(i32 noundef %0, ptr readnone captures(none) %1) #0 {
  %.not = icmp eq i32 %0, 0
  br i1 %.not, label %5, label %3

3:                                                ; preds = %2
  %4 = load ptr, ptr @camel_handle, align 8
  tail call void @add_itu_tcap_subdissector(i32 noundef %0, ptr noundef %4)
  br label %5

5:                                                ; preds = %3, %2
  ret void
}